target datalayout = "e-m:e-p270:32:32-p271:32:32-p272:64:64-i64:64-i128:128-f80:128-n8:16:32:64-S128"
target triple = "x86_64-pc-linux-gnu"

%struct.Abc_Obj_t_ = type { ptr, ptr, i32, i32, %struct.Vec_Int_t_, %struct.Vec_Int_t_, %union.anon, %union.anon.0 }
%struct.Vec_Int_t_ = type { i32, i32, ptr }
%union.anon = type { ptr }
%union.anon.0 = type { ptr }
%struct.Abc_Ntk_t_ = type { i32, i32, ptr, ptr, ptr, ptr, ptr, ptr, ptr, ptr, ptr, ptr, ptr, [11 x i32], i32, i32, i32, i32, ptr, i32, ptr, ptr, i32, i32, i32, double, i32, %struct.Vec_Int_t_, ptr, ptr, ptr, ptr, ptr, float, i32, ptr, ptr, ptr, ptr, ptr, ptr, ptr, ptr, ptr, ptr, ptr, ptr, ptr, ptr, ptr, ptr, ptr, ptr, ptr, ptr, ptr, ptr }
%struct.Vec_Ptr_t_ = type { i32, i32, ptr }

@.str = private unnamed_addr constant [49 x i8] c"Abc_NtkCovDerive: The network check has failed.\0A\00", align 1

; Function Attrs: inlinehint nounwind uwtable
define internal ptr @Vec_PtrEntry(ptr noundef %0, i32 noundef %1) #3 {
  %3 = alloca ptr, align 8
  %4 = alloca i32, align 4
  store ptr %0, ptr %3, align 8, !tbaa !72
  store i32 %1, ptr %4, align 4, !tbaa !14
  %5 = load ptr, ptr %3, align 8, !tbaa !72
  %6 = getelementptr inbounds nuw %struct.Vec_Ptr_t_, ptr %5, i32 0, i32 2
  %7 = load ptr, ptr %6, align 8, !tbaa !53
  %8 = load i32, ptr %4, align 4, !tbaa !14
  %9 = sext i32 %8 to i64
  %10 = getelementptr inbounds ptr, ptr %7, i64 %9
  %11 = load ptr, ptr %10, align 8, !tbaa !56
  ret ptr %11
}

; Function Attrs: inlinehint nounwind uwtable
define internal i32 @Vec_PtrSize(ptr noundef %0) #3 {
  %2 = alloca ptr, align 8
  store ptr %0, ptr %2, align 8, !tbaa !72
  %3 = load ptr, ptr %2, align 8, !tbaa !72
  %4 = getelementptr inbounds nuw %struct.Vec_Ptr_t_, ptr %3, i32 0, i32 1
  %5 = load i32, ptr %4, align 4, !tbaa !78
  ret i32 %5
}

; Function Attrs: inlinehint nounwind uwtable
define internal i32 @Abc_ObjFaninC0(ptr noundef %0) #3 {
  %2 = alloca ptr, align 8
  store ptr %0, ptr %2, align 8, !tbaa !8
  %3 = load ptr, ptr %2, align 8, !tbaa !8
  %4 = getelementptr inbounds nuw %struct.Abc_Obj_t_, ptr %3, i32 0, i32 3
  %5 = load i32, ptr %4, align 4
  %6 = lshr i32 %5, 10
  %7 = and i32 %6, 1
  ret i32 %7
}

; Function Attrs: inlinehint nounwind uwtable
define internal ptr @Abc_ObjFanin0(ptr noundef %0) #3 {
  %2 = alloca ptr, align 8
  store ptr %0, ptr %2, align 8, !tbaa !8
  %3 = load ptr, ptr %2, align 8, !tbaa !8
  %4 = getelementptr inbounds nuw %struct.Abc_Obj_t_, ptr %3, i32 0, i32 0
  %5 = load ptr, ptr %4, align 8, !tbaa !16
  %6 = getelementptr inbounds nuw %struct.Abc_Ntk_t_, ptr %5, i32 0, i32 5
  %7 = load ptr, ptr %6, align 8, !tbaa !41
  %8 = getelementptr inbounds nuw %struct.Vec_Ptr_t_, ptr %7, i32 0, i32 2
  %9 = load ptr, ptr %8, align 8, !tbaa !53
  %10 = load ptr, ptr %2, align 8, !tbaa !8
  %11 = getelementptr inbounds nuw %struct.Abc_Obj_t_, ptr %10, i32 0, i32 4
  %12 = getelementptr inbounds nuw %struct.Vec_Int_t_, ptr %11, i32 0, i32 2
  %13 = load ptr, ptr %12, align 8, !tbaa !55
  %14 = getelementptr inbounds i32, ptr %13, i64 0
  %15 = load i32, ptr %14, align 4, !tbaa !14
  %16 = sext i32 %15 to i64
  %17 = getelementptr inbounds ptr, ptr %9, i64 %16
  %18 = load ptr, ptr %17, align 8, !tbaa !56
  ret ptr %18
}

; Function Attrs: inlinehint nounwind uwtable
define internal ptr @Abc_NtkCo(ptr noundef %0, i32 noundef %1) #3 {
  %3 = alloca ptr, align 8
  %4 = alloca i32, align 4
  store ptr %0, ptr %3, align 8, !tbaa !3
  store i32 %1, ptr %4, align 4, !tbaa !14
  %5 = load ptr, ptr %3, align 8, !tbaa !3
  %6 = getelementptr inbounds nuw %struct.Abc_Ntk_t_, ptr %5, i32 0, i32 9
  %7 = load ptr, ptr %6, align 8, !tbaa !52
  %8 = load i32, ptr %4, align 4, !tbaa !14
  %9 = call ptr @Vec_PtrEntry(ptr noundef %7, i32 noundef %8)
  ret ptr %9
}

; Function Attrs: inlinehint nounwind uwtable
define internal i32 @Abc_NtkCoNum(ptr noundef %0) #3 {
  %2 = alloca ptr, align 8
  store ptr %0, ptr %2, align 8, !tbaa !3
  %3 = load ptr, ptr %2, align 8, !tbaa !3
  %4 = getelementptr inbounds nuw %struct.Abc_Ntk_t_, ptr %3, i32 0, i32 9
  %5 = load ptr, ptr %4, align 8, !tbaa !52
  %6 = call i32 @Vec_PtrSize(ptr noundef %5)
  ret i32 %6
}

; Function Attrs: inlinehint nounwind uwtable
define internal i32 @Abc_ObjFanoutNum(ptr noundef %0) #3 {
  %2 = alloca ptr, align 8
  store ptr %0, ptr %2, align 8, !tbaa !8
  %3 = load ptr, ptr %2, align 8, !tbaa !8
  %4 = getelementptr inbounds nuw %struct.Abc_Obj_t_, ptr %3, i32 0, i32 5
  %5 = getelementptr inbounds nuw %struct.Vec_Int_t_, ptr %4, i32 0, i32 1
  %6 = load i32, ptr %5, align 4, !tbaa !71
  ret i32 %6
}

; Function Attrs: nounwind uwtable
define ptr @Abc_NtkCovDeriveRegular(ptr noundef %0, ptr noundef %1) #0 {
  %3 = alloca ptr, align 8
  %4 = alloca ptr, align 8
  %5 = alloca ptr, align 8
  %6 = alloca ptr, align 8
  %7 = alloca ptr, align 8
  %8 = alloca ptr, align 8
  %9 = alloca i32, align 4
  %10 = alloca i32, align 4
  store ptr %0, ptr %4, align 8, !tbaa !42
  store ptr %1, ptr %5, align 8, !tbaa !3
  call void @llvm.lifetime.start.p0(i64 8, ptr %6) #7
  call void @llvm.lifetime.start.p0(i64 8, ptr %7) #7
  call void @llvm.lifetime.start.p0(i64 8, ptr %8) #7
  call void @llvm.lifetime.start.p0(i64 4, ptr %9) #7
  %11 = load ptr, ptr %5, align 8, !tbaa !3
  %12 = call ptr @Abc_NtkStartFrom(ptr noundef %11, i32 noundef 2, i32 noundef 1)
  store ptr %12, ptr %6, align 8, !tbaa !3
  %13 = load ptr, ptr %5, align 8, !tbaa !3
  %14 = call ptr @Abc_AigConst1(ptr noundef %13)
  %15 = call i32 @Abc_ObjFanoutNum(ptr noundef %14)
  %16 = icmp sgt i32 %15, 0
  br i1 %16, label %17, label %23

17:                                               ; preds = %2
  %18 = load ptr, ptr %6, align 8, !tbaa !3
  %19 = call ptr @Abc_NtkCreateNodeConst1(ptr noundef %18)
  %20 = load ptr, ptr %5, align 8, !tbaa !3
  %21 = call ptr @Abc_AigConst1(ptr noundef %20)
  %22 = getelementptr inbounds nuw %struct.Abc_Obj_t_, ptr %21, i32 0, i32 7
  store ptr %19, ptr %22, align 8, !tbaa !20
  br label %23

23:                                               ; preds = %17, %2
  store i32 0, ptr %9, align 4, !tbaa !14
  br label %24

24:                                               ; preds = %68, %23
  %25 = load i32, ptr %9, align 4, !tbaa !14
  %26 = load ptr, ptr %5, align 8, !tbaa !3
  %27 = call i32 @Abc_NtkCoNum(ptr noundef %26)
  %28 = icmp slt i32 %25, %27
  br i1 %28, label %29, label %33

29:                                               ; preds = %24
  %30 = load ptr, ptr %5, align 8, !tbaa !3
  %31 = load i32, ptr %9, align 4, !tbaa !14
  %32 = call ptr @Abc_NtkCo(ptr noundef %30, i32 noundef %31)
  store ptr %32, ptr %7, align 8, !tbaa !8
  br label %33

33:                                               ; preds = %29, %24
  %34 = phi i1 [ false, %24 ], [ true, %29 ]
  br i1 %34, label %35, label %71

35:                                               ; preds = %33
  %36 = load ptr, ptr %4, align 8, !tbaa !42
  %37 = load ptr, ptr %6, align 8, !tbaa !3
  %38 = load ptr, ptr %7, align 8, !tbaa !8
  %39 = call ptr @Abc_ObjFanin0(ptr noundef %38)
  %40 = call ptr @Abc_NtkCovDerive_rec(ptr noundef %36, ptr noundef %37, ptr noundef %39)
  store ptr %40, ptr %8, align 8, !tbaa !8
  %41 = load ptr, ptr %7, align 8, !tbaa !8
  %42 = call i32 @Abc_ObjFaninC0(ptr noundef %41)
  %43 = icmp ne i32 %42, 0
  br i1 %43, label %44, label %63

44:                                               ; preds = %35
  %45 = load ptr, ptr %8, align 8, !tbaa !8
  %46 = getelementptr inbounds nuw %struct.Abc_Obj_t_, ptr %45, i32 0, i32 6
  %47 = load ptr, ptr %46, align 8, !tbaa !20
  %48 = icmp ne ptr %47, null
  br i1 %48, label %49, label %58

49:                                               ; preds = %44
  %50 = load ptr, ptr %7, align 8, !tbaa !8
  %51 = call ptr @Abc_ObjFanin0(ptr noundef %50)
  %52 = call i32 @Abc_ObjFanoutNum(ptr noundef %51)
  %53 = icmp eq i32 %52, 1
  br i1 %53, label %54, label %58

54:                                               ; preds = %49
  %55 = load ptr, ptr %8, align 8, !tbaa !8
  %56 = getelementptr inbounds nuw %struct.Abc_Obj_t_, ptr %55, i32 0, i32 6
  %57 = load ptr, ptr %56, align 8, !tbaa !20
  call void @Abc_SopComplement(ptr noundef %57)
  br label %62

58:                                               ; preds = %49, %44
  %59 = load ptr, ptr %6, align 8, !tbaa !3
  %60 = load ptr, ptr %8, align 8, !tbaa !8
  %61 = call ptr @Abc_NtkCreateNodeInv(ptr noundef %59, ptr noundef %60)
  store ptr %61, ptr %8, align 8, !tbaa !8
  br label %62

62:                                               ; preds = %58, %54
  br label %63

63:                                               ; preds = %62, %35
  %64 = load ptr, ptr %7, align 8, !tbaa !8
  %65 = getelementptr inbounds nuw %struct.Abc_Obj_t_, ptr %64, i32 0, i32 7
  %66 = load ptr, ptr %65, align 8, !tbaa !20
  %67 = load ptr, ptr %8, align 8, !tbaa !8
  call void @Abc_ObjAddFanin(ptr noundef %66, ptr noundef %67)
  br label %68

68:                                               ; preds = %63
  %69 = load i32, ptr %9, align 4, !tbaa !14
  %70 = add nsw i32 %69, 1
  store i32 %70, ptr %9, align 4, !tbaa !14
  br label %24, !llvm.loop !70

71:                                               ; preds = %33
  %72 = load ptr, ptr %6, align 8, !tbaa !3
  %73 = call i32 @Abc_NtkLogicMakeSimpleCos(ptr noundef %72, i32 noundef 0)
  %74 = load ptr, ptr %6, align 8, !tbaa !3
  %75 = call i32 @Abc_NtkCheck(ptr noundef %74)
  %76 = icmp ne i32 %75, 0
  br i1 %76, label %80, label %77

77:                                               ; preds = %71
  %78 = call i32 (ptr, ...) @printf(ptr noundef @.str)
  %79 = load ptr, ptr %6, align 8, !tbaa !3
  call void @Abc_NtkDelete(ptr noundef %79)
  store ptr null, ptr %3, align 8
  store i32 1, ptr %10, align 4
  br label %82

80:                                               ; preds = %71
  %81 = load ptr, ptr %6, align 8, !tbaa !3
  store ptr %81, ptr %3, align 8
  store i32 1, ptr %10, align 4
  br label %82

82:                                               ; preds = %80, %77
  call void @llvm.lifetime.end.p0(i64 4, ptr %9) #7
  call void @llvm.lifetime.end.p0(i64 8, ptr %8) #7
  call void @llvm.lifetime.end.p0(i64 8, ptr %7) #7
  call void @llvm.lifetime.end.p0(i64 8, ptr %6) #7
  %83 = load ptr, ptr %3, align 8
  ret ptr %83
}