; Function Attrs: nounwind uwtable
define ptr @Abc_NtkCovDeriveRegular(ptr noundef readnone captures(none) %0, ptr noundef %1) local_unnamed_addr #0 {
  %3 = tail call ptr @Abc_NtkStartFrom(ptr noundef %1, i32 noundef 2, i32 noundef 1) #7
  %4 = tail call ptr @Abc_AigConst1(ptr noundef %1) #7
  %5 = getelementptr i8, ptr %4, i64 44
  %.val34 = load i32, ptr %5, align 4, !tbaa !68
  %6 = icmp sgt i32 %.val34, 0
  br i1 %6, label %7, label %11

7:                                                ; preds = %2
  %8 = tail call ptr @Abc_NtkCreateNodeConst1(ptr noundef %3) #7
  %9 = tail call ptr @Abc_AigConst1(ptr noundef %1) #7
  %10 = getelementptr inbounds nuw i8, ptr %9, i64 64
  store ptr %8, ptr %10, align 8, !tbaa !34
  br label %11

11:                                               ; preds = %7, %2
  %12 = getelementptr i8, ptr %1, i64 64
  %.val36 = load ptr, ptr %12, align 8, !tbaa !54
  %13 = getelementptr i8, ptr %.val36, i64 4
  %.val.val37 = load i32, ptr %13, align 4, !tbaa !55
  %14 = icmp sgt i32 %.val.val37, 0
  br i1 %14, label %.lr.ph, label %.critedge

.lr.ph:                                           ; preds = %11, %41
  %indvars.iv = phi i64 [ %indvars.iv.next, %41 ], [ 0, %11 ]
  %.val39 = phi ptr [ %.val, %41 ], [ %.val36, %11 ]
  %15 = getelementptr i8, ptr %.val39, i64 8
  %.val28.val = load ptr, ptr %15, align 8, !tbaa !31
  %16 = getelementptr inbounds nuw ptr, ptr %.val28.val, i64 %indvars.iv
  %17 = load ptr, ptr %16, align 8, !tbaa !33
  %.val31 = load ptr, ptr %17, align 8, !tbaa !13
  %18 = getelementptr i8, ptr %17, i64 32
  %.val32 = load ptr, ptr %18, align 8, !tbaa !56
  %19 = getelementptr i8, ptr %.val31, i64 32
  %.val31.val = load ptr, ptr %19, align 8, !tbaa !17
  %.val32.val = load i32, ptr %.val32, align 4, !tbaa !12
  %20 = getelementptr i8, ptr %.val31.val, i64 8
  %.val31.val.val = load ptr, ptr %20, align 8, !tbaa !31
  %21 = sext i32 %.val32.val to i64
  %22 = getelementptr inbounds ptr, ptr %.val31.val.val, i64 %21
  %23 = load ptr, ptr %22, align 8, !tbaa !33
  %24 = tail call ptr @Abc_NtkCovDerive_rec(ptr noundef %0, ptr noundef %3, ptr noundef %23)
  %25 = getelementptr i8, ptr %17, i64 20
  %.val33 = load i32, ptr %25, align 4
  %26 = and i32 %.val33, 1024
  %.not26 = icmp eq i32 %26, 0
  br i1 %.not26, label %41, label %27

27:                                               ; preds = %.lr.ph
  %28 = getelementptr inbounds nuw i8, ptr %24, i64 56
  %29 = load ptr, ptr %28, align 8, !tbaa !34
  %.not27 = icmp eq ptr %29, null
  br i1 %.not27, label %39, label %30

30:                                               ; preds = %27
  %.val29 = load ptr, ptr %17, align 8, !tbaa !13
  %.val30 = load ptr, ptr %18, align 8, !tbaa !56
  %31 = getelementptr i8, ptr %.val29, i64 32
  %.val29.val = load ptr, ptr %31, align 8, !tbaa !17
  %.val30.val = load i32, ptr %.val30, align 4, !tbaa !12
  %32 = getelementptr i8, ptr %.val29.val, i64 8
  %.val29.val.val = load ptr, ptr %32, align 8, !tbaa !31
  %33 = sext i32 %.val30.val to i64
  %34 = getelementptr inbounds ptr, ptr %.val29.val.val, i64 %33
  %35 = load ptr, ptr %34, align 8, !tbaa !33
  %36 = getelementptr i8, ptr %35, i64 44
  %.val35 = load i32, ptr %36, align 4, !tbaa !68
  %37 = icmp eq i32 %.val35, 1
  br i1 %37, label %38, label %39

38:                                               ; preds = %30
  tail call void @Abc_SopComplement(ptr noundef nonnull %29) #7
  br label %41

39:                                               ; preds = %30, %27
  %40 = tail call ptr @Abc_NtkCreateNodeInv(ptr noundef %3, ptr noundef nonnull %24) #7
  br label %41

41:                                               ; preds = %38, %39, %.lr.ph
  %.024 = phi ptr [ %24, %38 ], [ %40, %39 ], [ %24, %.lr.ph ]
  %42 = getelementptr inbounds nuw i8, ptr %17, i64 64
  %43 = load ptr, ptr %42, align 8, !tbaa !34
  tail call void @Abc_ObjAddFanin(ptr noundef %43, ptr noundef %.024) #7
  %indvars.iv.next = add nuw nsw i64 %indvars.iv, 1
  %.val = load ptr, ptr %12, align 8, !tbaa !54
  %44 = getelementptr i8, ptr %.val, i64 4
  %.val.val = load i32, ptr %44, align 4, !tbaa !55
  %45 = sext i32 %.val.val to i64
  %46 = icmp slt i64 %indvars.iv.next, %45
  br i1 %46, label %.lr.ph, label %.critedge, !llvm.loop !69

.critedge:                                        ; preds = %41, %11
  %47 = tail call i32 @Abc_NtkLogicMakeSimpleCos(ptr noundef %3, i32 noundef 0) #7
  %48 = tail call i32 @Abc_NtkCheck(ptr noundef %3) #7
  %.not = icmp eq i32 %48, 0
  br i1 %.not, label %49, label %50

49:                                               ; preds = %.critedge
  %puts = tail call i32 @puts(ptr nonnull dereferenceable(1) @str.2)
  tail call void @Abc_NtkDelete(ptr noundef %3) #7
  br label %50

50:                                               ; preds = %.critedge, %49
  %.025 = phi ptr [ null, %49 ], [ %3, %.critedge ]
  ret ptr %.025
}